000000000d039640 b _ZGVZN10tensorflow8tensorrt18TRTResourceManager8instanceEvE9instance_
0000000006574cb0 T _ZN10tensorflow8tensorrt10TRTCalibOp7ComputeEPNS_15OpKernelContextE
0000000006574340 T _ZN10tensorflow8tensorrt10TRTCalibOpC1EPNS_20OpKernelConstructionE
0000000006574340 T _ZN10tensorflow8tensorrt10TRTCalibOpC2EPNS_20OpKernelConstructionE
0000000006574030 W _ZN10tensorflow8tensorrt10TRTCalibOpD0Ev
0000000006573d20 W _ZN10tensorflow8tensorrt10TRTCalibOpD1Ev
0000000006573d20 W _ZN10tensorflow8tensorrt10TRTCalibOpD2Ev
0000000006576350 T _ZN10tensorflow8tensorrt11TRTEngineOp7ComputeEPNS_15OpKernelContextE
0000000006576050 T _ZN10tensorflow8tensorrt11TRTEngineOpC1EPNS_20OpKernelConstructionE
0000000006576050 T _ZN10tensorflow8tensorrt11TRTEngineOpC2EPNS_20OpKernelConstructionE
0000000006575eb0 W _ZN10tensorflow8tensorrt11TRTEngineOpD0Ev
0000000006575d10 W _ZN10tensorflow8tensorrt11TRTEngineOpD1Ev
0000000006575d10 W _ZN10tensorflow8tensorrt11TRTEngineOpD2Ev
0000000006576c70 T _ZN10tensorflow8tensorrt17TRTInt8Calibrator20readCalibrationCacheERm
0000000006576c80 T _ZN10tensorflow8tensorrt17TRTInt8Calibrator21writeCalibrationCacheEPKvm
0000000006576cd0 T _ZN10tensorflow8tensorrt17TRTInt8Calibrator7setDoneEv
0000000006576fa0 T _ZN10tensorflow8tensorrt17TRTInt8Calibrator8getBatchEPPvPPKci
0000000006577200 T _ZN10tensorflow8tensorrt17TRTInt8Calibrator8setBatchERKSt13unordered_mapISsPvSt4hashISsESt8equal_toISsESaISt4pairIKSsS3_EEEP11CUstream_st
0000000006576d70 T _ZN10tensorflow8tensorrt17TRTInt8CalibratorC1ERKSt13unordered_mapISsSt4pairIPvmESt4hashISsESt8equal_toISsESaIS3_IKSsS5_EEEiSs
0000000006576d70 T _ZN10tensorflow8tensorrt17TRTInt8CalibratorC2ERKSt13unordered_mapISsSt4pairIPvmESt4hashISsESt8equal_toISsESaIS3_IKSsS5_EEEiSs
0000000006577690 T _ZN10tensorflow8tensorrt17TRTInt8CalibratorD0Ev
00000000065774f0 T _ZN10tensorflow8tensorrt17TRTInt8CalibratorD1Ev
00000000065774f0 T _ZN10tensorflow8tensorrt17TRTInt8CalibratorD2Ev
0000000006577f50 T _ZN10tensorflow8tensorrt18TRTResourceManager10getManagerERKSs
0000000006577a30 T _ZN10tensorflow8tensorrt18TRTResourceManager8instanceEv
0000000006576c60 T _ZNK10tensorflow8tensorrt17TRTInt8Calibrator12getBatchSizeEv
0000000006577830 W _ZNSt10shared_ptrIN10tensorflow8tensorrt18TRTResourceManagerEED1Ev
0000000006577830 W _ZNSt10shared_ptrIN10tensorflow8tensorrt18TRTResourceManagerEED2Ev
0000000006577720 W _ZNSt15_Sp_counted_ptrIPN10tensorflow8tensorrt18TRTResourceManagerELN9__gnu_cxx12_Lock_policyE2EE10_M_destroyEv
00000000065778b0 W _ZNSt15_Sp_counted_ptrIPN10tensorflow8tensorrt18TRTResourceManagerELN9__gnu_cxx12_Lock_policyE2EE10_M_disposeEv
00000000065776f0 W _ZNSt15_Sp_counted_ptrIPN10tensorflow8tensorrt18TRTResourceManagerELN9__gnu_cxx12_Lock_policyE2EE14_M_get_deleterERKSt9type_info
0000000006577700 W _ZNSt15_Sp_counted_ptrIPN10tensorflow8tensorrt18TRTResourceManagerELN9__gnu_cxx12_Lock_policyE2EED0Ev
00000000065776b0 W _ZNSt15_Sp_counted_ptrIPN10tensorflow8tensorrt18TRTResourceManagerELN9__gnu_cxx12_Lock_policyE2EED1Ev
00000000065776b0 W _ZNSt15_Sp_counted_ptrIPN10tensorflow8tensorrt18TRTResourceManagerELN9__gnu_cxx12_Lock_policyE2EED2Ev
00000000065739a0 t _ZNSt23_Sp_counted_ptr_inplaceINSt6thread5_ImplISt12_Bind_simpleIFZN10tensorflow8tensorrt10TRTCalibOp7ComputeEPNS3_15OpKernelContextEEUlvE_vEEEESaISB_ELN9__gnu_cxx12_Lock_policyE2EE10_M_destroyEv
0000000006573980 t _ZNSt23_Sp_counted_ptr_inplaceINSt6thread5_ImplISt12_Bind_simpleIFZN10tensorflow8tensorrt10TRTCalibOp7ComputeEPNS3_15OpKernelContextEEUlvE_vEEEESaISB_ELN9__gnu_cxx12_Lock_policyE2EE10_M_disposeEv
0000000006573a30 t _ZNSt23_Sp_counted_ptr_inplaceINSt6thread5_ImplISt12_Bind_simpleIFZN10tensorflow8tensorrt10TRTCalibOp7ComputeEPNS3_15OpKernelContextEEUlvE_vEEEESaISB_ELN9__gnu_cxx12_Lock_policyE2EE14_M_get_deleterERKSt9type_info
00000000065739c0 t _ZNSt23_Sp_counted_ptr_inplaceINSt6thread5_ImplISt12_Bind_simpleIFZN10tensorflow8tensorrt10TRTCalibOp7ComputeEPNS3_15OpKernelContextEEUlvE_vEEEESaISB_ELN9__gnu_cxx12_Lock_policyE2EED0Ev
0000000006573960 t _ZNSt23_Sp_counted_ptr_inplaceINSt6thread5_ImplISt12_Bind_simpleIFZN10tensorflow8tensorrt10TRTCalibOp7ComputeEPNS3_15OpKernelContextEEUlvE_vEEEESaISB_ELN9__gnu_cxx12_Lock_policyE2EED1Ev
0000000006573960 t _ZNSt23_Sp_counted_ptr_inplaceINSt6thread5_ImplISt12_Bind_simpleIFZN10tensorflow8tensorrt10TRTCalibOp7ComputeEPNS3_15OpKernelContextEEUlvE_vEEEESaISB_ELN9__gnu_cxx12_Lock_policyE2EED2Ev
0000000006575b60 t _ZNSt6thread5_ImplISt12_Bind_simpleIFZN10tensorflow8tensorrt10TRTCalibOp7ComputeEPNS2_15OpKernelContextEEUlvE_vEEE6_M_runEv
0000000006573c10 t _ZNSt6thread5_ImplISt12_Bind_simpleIFZN10tensorflow8tensorrt10TRTCalibOp7ComputeEPNS2_15OpKernelContextEEUlvE_vEEED0Ev
0000000006573b20 t _ZNSt6thread5_ImplISt12_Bind_simpleIFZN10tensorflow8tensorrt10TRTCalibOp7ComputeEPNS2_15OpKernelContextEEUlvE_vEEED1Ev
0000000006573b20 t _ZNSt6thread5_ImplISt12_Bind_simpleIFZN10tensorflow8tensorrt10TRTCalibOp7ComputeEPNS2_15OpKernelContextEEUlvE_vEEED2Ev
000000000cf493c0 V _ZTIN10tensorflow8tensorrt10TRTCalibOpE
000000000cf49450 V _ZTIN10tensorflow8tensorrt11TRTEngineOpE
000000000cf49530 V _ZTIN10tensorflow8tensorrt17TRTInt8CalibratorE
000000000cf493e0 V _ZTIN10tensorflow8tensorrt22TRTCalibrationResourceE
000000000cf493a0 d _ZTINSt6thread5_ImplISt12_Bind_simpleIFZN10tensorflow8tensorrt10TRTCalibOp7ComputeEPNS2_15OpKernelContextEEUlvE_vEEEE
000000000cf49670 V _ZTISt15_Sp_counted_ptrIPN10tensorflow8tensorrt18TRTResourceManagerELN9__gnu_cxx12_Lock_policyE2EE
000000000cf49380 d _ZTISt23_Sp_counted_ptr_inplaceINSt6thread5_ImplISt12_Bind_simpleIFZN10tensorflow8tensorrt10TRTCalibOp7ComputeEPNS3_15OpKernelContextEEUlvE_vEEEESaISB_ELN9__gnu_cxx12_Lock_policyE2EE
0000000006ec8f60 V _ZTSN10tensorflow8tensorrt10TRTCalibOpE
0000000006ec9160 V _ZTSN10tensorflow8tensorrt11TRTEngineOpE
0000000006ec9320 V _ZTSN10tensorflow8tensorrt17TRTInt8CalibratorE
0000000006ec8fa0 V _ZTSN10tensorflow8tensorrt22TRTCalibrationResourceE
0000000006ec8e20 r _ZTSNSt6thread5_ImplISt12_Bind_simpleIFZN10tensorflow8tensorrt10TRTCalibOp7ComputeEPNS2_15OpKernelContextEEUlvE_vEEEE
0000000006ec93e0 V _ZTSSt15_Sp_counted_ptrIPN10tensorflow8tensorrt18TRTResourceManagerELN9__gnu_cxx12_Lock_policyE2EE
0000000006ec8ea0 r _ZTSSt23_Sp_counted_ptr_inplaceINSt6thread5_ImplISt12_Bind_simpleIFZN10tensorflow8tensorrt10TRTCalibOp7ComputeEPNS3_15OpKernelContextEEUlvE_vEEEESaISB_ELN9__gnu_cxx12_Lock_policyE2EE
000000000cf49400 V _ZTVN10tensorflow8tensorrt10TRTCalibOpE
000000000cf494c0 V _ZTVN10tensorflow8tensorrt11TRTEngineOpE
000000000cf49620 V _ZTVN10tensorflow8tensorrt17TRTInt8CalibratorE
000000000ce64620 d _ZTVNSt6thread5_ImplISt12_Bind_simpleIFZN10tensorflow8tensorrt10TRTCalibOp7ComputeEPNS2_15OpKernelContextEEUlvE_vEEEE
000000000cf496c0 V _ZTVSt15_Sp_counted_ptrIPN10tensorflow8tensorrt18TRTResourceManagerELN9__gnu_cxx12_Lock_policyE2EE
000000000ce64660 d _ZTVSt23_Sp_counted_ptr_inplaceINSt6thread5_ImplISt12_Bind_simpleIFZN10tensorflow8tensorrt10TRTCalibOp7ComputeEPNS3_15OpKernelContextEEUlvE_vEEEESaISB_ELN9__gnu_cxx12_Lock_policyE2EE
0000000006575a50 t _ZZN10tensorflow8tensorrt10TRTCalibOp7ComputeEPNS_15OpKernelContextEENKUlvE_clEv
000000000d039630 b _ZZN10tensorflow8tensorrt18TRTResourceManager8instanceEvE9instance_
